(lp0
(dp1
VMonkeyKing
p2
I62
sVJax
p3
I24
sVShaco
p4
I35
sVWarwick
p5
I19
sVNidalee
p6
I76
sVZyra
p7
I143
sVBrand
p8
I63
sVRammus
p9
I33
sVCorki
p10
I42
sVAnivia
p11
I34
sVTryndamere
p12
I23
sVMissFortune
p13
I21
sVYorick
p14
I83
sVXerath
p15
I101
sVSivir
p16
I15
sVRiven
p17
I92
sVOrianna
p18
I61
sVGangplank
p19
I41
sVMalphite
p20
I54
sVPoppy
p21
I78
sVKarthus
p22
I30
sVJayce
p23
I126
sVBlitzcrank
p24
I53
sVTrundle
p25
I48
sVGraves
p26
I104
sVLucian
p27
I236
sVNocturne
p28
I56
sVLux
p29
I99
sVShyvana
p30
I102
sVRenekton
p31
I58
sVDarius
p32
I122
sVXinZhao
p33
I5
sVJinx
p34
I222
sVFizz
p35
I105
sVKassadin
p36
I38
sVSona
p37
I37
sVVladimir
p38
I8
sVViktor
p39
I112
sVCassiopeia
p40
I69
sVMaokai
p41
I57
sVThresh
p42
I412
sVKayle
p43
I10
sVHecarim
p44
I120
sVKhazix
p45
I121
sVOlaf
p46
I2
sVZiggs
p47
I115
sVSyndra
p48
I134
sVDrMundo
p49
I36
sVKarma
p50
I43
sVAnnie
p51
I1
sVAkali
p52
I84
sVLeona
p53
I89
sVYasuo
p54
I157
sVKennen
p55
I85
sVRengar
p56
I107
sVRyze
p57
I13
sVShen
p58
I98
sVZac
p59
I154
sVTalon
p60
I91
sVSwain
p61
I50
sVSion
p62
I14
sVVayne
p63
I67
sVNasus
p64
I75
sVTwistedFate
p65
I4
sVChogath
p66
I31
sVUdyr
p67
I77
sVMorgana
p68
I25
sVVolibear
p69
I106
sVCaitlyn
p70
I51
sVSejuani
p71
I113
sVZilean
p72
I26
sVRumble
p73
I68
sVSkarner
p74
I72
sVTeemo
p75
I17
sVUrgot
p76
I6
sVAmumu
p77
I32
sVGalio
p78
I3
sVHeimerdinger
p79
I74
sVAshe
p80
I22
sVSinged
p81
I27
sVVarus
p82
I110
sVTwitch
p83
I29
sVGaren
p84
I86
sVNunu
p85
I20
sVMasterYi
p86
I11
sVElise
p87
I60
sVAlistar
p88
I12
sVKatarina
p89
I55
sVMordekaiser
p90
I82
sVLulu
p91
I117
sVAatrox
p92
I266
sVDraven
p93
I119
sVFiddleSticks
p94
I9
sVPantheon
p95
I80
sVFiora
p96
I114
sVLeeSin
p97
I64
sVAhri
p98
I103
sVMalzahar
p99
I90
sVLissandra
p100
I127
sVDiana
p101
I131
sVTristana
p102
I18
sVIrelia
p103
I39
sVJarvanIV
p104
I59
sVNami
p105
I267
sVSoraka
p106
I16
sVVeigar
p107
I45
sVJanna
p108
I40
sVNautilus
p109
I111
sVEvelynn
p110
I28
sVGragas
p111
I79
sVZed
p112
I238
sVVi
p113
I254
sVKogMaw
p114
I96
sVTaric
p115
I44
sVQuinn
p116
I133
sVLeblanc
p117
I7
sVEzreal
p118
I81
sa(dp119
I1
I0
sI2
I1
sI3
I2
sI4
I3
sI5
I4
sI6
I5
sI7
I6
sI8
I7
sI9
I8
sI10
I9
sI11
I10
sI12
I11
sI13
I12
sI14
I13
sI15
I14
sI16
I15
sI17
I16
sI18
I17
sI19
I18
sI20
I19
sI21
I20
sI22
I21
sI23
I22
sI24
I23
sI25
I24
sI26
I25
sI27
I26
sI28
I27
sI29
I28
sI30
I29
sI31
I30
sI32
I31
sI33
I32
sI34
I33
sI35
I34
sI36
I35
sI37
I36
sI38
I37
sI39
I38
sI40
I39
sI41
I40
sI42
I41
sI43
I42
sI44
I43
sI45
I44
sI48
I45
sI50
I46
sI51
I47
sI53
I48
sI54
I49
sI55
I50
sI56
I51
sI57
I52
sI58
I53
sI59
I54
sI60
I55
sI61
I56
sI62
I57
sI63
I58
sI64
I59
sI67
I60
sI68
I61
sI69
I62
sI72
I63
sI74
I64
sI75
I65
sI76
I66
sI77
I67
sI78
I68
sI79
I69
sI80
I70
sI81
I71
sI82
I72
sI83
I73
sI84
I74
sI85
I75
sI86
I76
sI89
I77
sI90
I78
sI91
I79
sI92
I80
sI96
I81
sI98
I82
sI99
I83
sI101
I84
sI102
I85
sI103
I86
sI104
I87
sI105
I88
sI106
I89
sI107
I90
sI110
I91
sI111
I92
sI112
I93
sI113
I94
sI114
I95
sI115
I96
sI117
I97
sI119
I98
sI120
I99
sI121
I100
sI122
I101
sI126
I102
sI127
I103
sI131
I104
sI133
I105
sI134
I106
sI143
I107
sI154
I108
sI157
I109
sI222
I110
sI236
I111
sI238
I112
sI254
I113
sI266
I114
sI267
I115
sI412
I116
sa(dp120
S'Knockback_champion'
p121
(lp122
VDraven
p123
aVGragas
p124
aVHecarim
p125
aVJanna
p126
aVJayce
p127
aVLee Sin
p128
aVPoppy
p129
aVRammus
p130
aVShyvana
p131
aVSyndra
p132
aVThresh
p133
aVTristana
p134
aVVayne
p135
aVVi
p136
aVXin Zhao
p137
aVZac
p138
asS'Snare_champion'
p139
(lp140
VKarma
p141
aVLeona
p142
aVLissandra
p143
aVMorgana
p144
aVNautilus
p145
aVRengar
p146
aVRyze
p147
aVSwain
p148
asS'Stun_champion'
p149
(lp150
VIrelia
p151
aVJax
p152
ag142
ag143
aVMalphite
p153
ag144
aVNami
p154
ag145
aVPantheon
p155
ag129
aVRenekton
p156
aVRiven
p157
aVSejuani
p158
aVSion
p159
aVSona
p160
ag132
aVTaric
p161
aVTwisted Fate
p162
aVUdyr
p163
ag135
aVVeigar
p164
asS'Suppress_champion'
p165
(lp166
VMalzahar
p167
aVSkarner
p168
aVUrgot
p169
aVWarwick
p170
asS'Slow_champion'
p171
(lp172
VDarius
p173
aVDiana
p174
aVDr. Mundo
p175
ag123
aVEvelynn
p176
aVGangplank
p177
ag124
aVGraves
p178
ag151
ag126
aVJarvan IV
p179
ag127
ag141
aVKarthus
p180
aVKassadin
p181
aVKayle
p182
aVKha'Zix
p183
aVKog'Maw
p184
ag128
ag142
ag143
aVLulu
p185
ag153
aVMiss Fortune
p186
ag144
ag154
ag145
aVNunu
p187
aVOlaf
p188
aVOrianna
p189
ag155
aVQuinn
p190
ag130
ag146
aVRumble
p191
ag158
aVShaco
p192
aVSinged
p193
ag168
ag160
ag148
ag132
aVTeemo
p194
ag133
ag134
aVTryndamere
p195
ag162
aVTwitch
p196
ag169
aVVolibear
p197
ag137
aVYorick
p198
ag138
asS'Silence_champion'
p199
(lp200
VGaren
p201
ag181
ag167
aVSoraka
p202
asS'Taunt_champion'
p203
(lp204
g130
aVShen
p205
asS'Interrupt_champion'
p206
(lp207
g173
ag123
ag201
ag124
ag125
ag151
ag126
ag179
ag152
ag127
ag181
ag128
ag142
ag185
ag153
ag167
ag144
ag145
aVNocturne
p208
ag189
ag155
ag129
ag130
ag156
ag157
ag158
ag192
ag205
ag131
ag193
ag159
ag168
ag160
ag202
ag161
ag134
ag162
ag163
ag169
ag135
ag164
ag197
ag170
ag137
ag138
asS'Blocker_champion'
p209
(lp210
g179
asS'Fear_champion'
p211
(lp212
g125
ag208
ag192
ag197
asS'Knockup_champion'
p213
(lp214
g126
ag179
ag128
ag185
ag153
ag154
ag145
ag157
ag158
ag136
ag137
ag138
asS'Pull_champion'
p215
(lp216
g173
ag174
ag145
ag133
asa.